target datalayout = "e-m:e-p270:32:32-p271:32:32-p272:64:64-i64:64-i128:128-f80:128-n8:16:32:64-S128"
target triple = "x86_64-pc-linux-gnu"

%struct.hwloc_topology = type { i32, i32, i32, ptr, ptr, i64, [20 x i32], [20 x i32], i64, i64, i32, ptr, i64, ptr, i64, [6 x %struct.hwloc_special_level_s], ptr, ptr, %struct.hwloc_binding_hooks, %struct.hwloc_topology_support, %struct.hwloc_infos_s, ptr, ptr, i32, ptr, ptr, i32, i32, ptr, i32, i32, ptr, i32, i32, i32, [5 x float], i32, ptr, ptr, i32, i32, ptr, i32, %struct.hwloc_numanode_attr_s, i32, i32, ptr, i64, i32, ptr, ptr, ptr }
%struct.hwloc_special_level_s = type { i32, ptr, ptr, ptr }
%struct.hwloc_binding_hooks = type { ptr, ptr, ptr, ptr, ptr, ptr, ptr, ptr, ptr, ptr, ptr, ptr, ptr, ptr, ptr, ptr, ptr, ptr, ptr, ptr, ptr, ptr, ptr, ptr }
%struct.hwloc_topology_support = type { ptr, ptr, ptr, ptr }
%struct.hwloc_infos_s = type { ptr, i32, i32 }
%struct.hwloc_numanode_attr_s = type { i64, i32, ptr }

; Function Attrs: nounwind uwtable
define hidden void @hwloc_free_unlinked_object(ptr noundef %0) #0 {
  %2 = alloca ptr, align 8
  store ptr %0, ptr %2, align 8, !tbaa !37
  %3 = load ptr, ptr %2, align 8, !tbaa !37
  call void @hwloc__free_object_contents(ptr noundef %3)
  %4 = load ptr, ptr %2, align 8, !tbaa !37
  call void @free(ptr noundef %4) #14
  ret void
}

; Function Attrs: nounwind uwtable
define i32 @hwloc_topology_free_group_object(ptr noundef %0, ptr noundef %1) #0 {
  %3 = alloca i32, align 4
  %4 = alloca ptr, align 8
  %5 = alloca ptr, align 8
  store ptr %0, ptr %4, align 8, !tbaa !3
  store ptr %1, ptr %5, align 8, !tbaa !37
  %6 = load ptr, ptr %4, align 8, !tbaa !3
  %7 = getelementptr inbounds nuw %struct.hwloc_topology, ptr %6, i32 0, i32 8
  %8 = load i64, ptr %7, align 8, !tbaa !86
  %9 = and i64 %8, 2
  %10 = icmp ne i64 %9, 0
  br i1 %10, label %13, label %11

11:                                               ; preds = %2
  %12 = call ptr @__errno_location() #16
  store i32 22, ptr %12, align 4, !tbaa !33
  store i32 -1, ptr %3, align 4
  br label %22

13:                                               ; preds = %2
  %14 = load ptr, ptr %4, align 8, !tbaa !3
  %15 = getelementptr inbounds nuw %struct.hwloc_topology, ptr %14, i32 0, i32 13
  %16 = load ptr, ptr %15, align 8, !tbaa !111
  %17 = icmp ne ptr %16, null
  br i1 %17, label %18, label %20

18:                                               ; preds = %13
  %19 = call ptr @__errno_location() #16
  store i32 1, ptr %19, align 4, !tbaa !33
  store i32 -1, ptr %3, align 4
  br label %22

20:                                               ; preds = %13
  %21 = load ptr, ptr %5, align 8, !tbaa !37
  call void @hwloc_free_unlinked_object(ptr noundef %21)
  store i32 0, ptr %3, align 4
  br label %22

22:                                               ; preds = %20, %18, %11
  %23 = load i32, ptr %3, align 4
  ret i32 %23
}