; Function Attrs: nounwind uwtable
define range(i32 -1, 1) i32 @hwloc_topology_free_group_object(ptr noundef readonly captures(none) %0, ptr noundef captures(none) %1) local_unnamed_addr #5 {
  %3 = getelementptr inbounds nuw i8, ptr %0, i64 200
  %4 = load i64, ptr %3, align 8, !tbaa !90
  %5 = and i64 %4, 2
  %.not = icmp eq i64 %5, 0
  br i1 %.not, label %6, label %8

6:                                                ; preds = %2
  %7 = tail call ptr @__errno_location() #37
  store i32 22, ptr %7, align 4, !tbaa !31
  br label %14

8:                                                ; preds = %2
  %9 = getelementptr inbounds nuw i8, ptr %0, i64 240
  %10 = load ptr, ptr %9, align 8, !tbaa !143
  %.not3 = icmp eq ptr %10, null
  br i1 %.not3, label %13, label %11

11:                                               ; preds = %8
  %12 = tail call ptr @__errno_location() #37
  store i32 1, ptr %12, align 4, !tbaa !31
  br label %14

13:                                               ; preds = %8
  tail call fastcc void @hwloc__free_object_contents(ptr noundef %1)
  tail call void @free(ptr noundef %1) #34
  br label %14

14:                                               ; preds = %13, %11, %6
  %.0 = phi i32 [ -1, %11 ], [ 0, %13 ], [ -1, %6 ]
  ret i32 %.0
}